target datalayout = "e-m:e-p270:32:32-p271:32:32-p272:64:64-i64:64-i128:128-f80:128-n8:16:32:64-S128"
target triple = "x86_64-pc-linux-gnu"

%struct.vp56_context = type { ptr, %struct.H264ChromaContext, %struct.HpelDSPContext, %struct.VideoDSPContext, %struct.VP3DSPContext, %struct.VP56DSPContext, [64 x i8], [4 x ptr], ptr, ptr, %struct.VPXRangeCoder, %struct.VPXRangeCoder, ptr, i32, i32, [4 x i32], [4 x i32], i32, i32, [6 x i32], i32, i16, i16, ptr, [4 x %struct.VP56RefDc], [6 x i32], [3 x [3 x i16]], i32, ptr, [8 x i8], [6 x [64 x i16]], [6 x i32], ptr, [6 x %struct.VP56mv], [2 x %struct.VP56mv], i32, i32, i32, i32, i32, i32, i32, [4 x i8], [256 x i32], [4 x [64 x i8]], [4 x i8], i32, i32, i32, i32, i32, i32, i32, [4 x i64], ptr, ptr, ptr, ptr, ptr, ptr, ptr, ptr, ptr, ptr, %struct.VP56Model, i32, %struct.GetBitContext, [2 x %struct.VLC], [2 x %struct.VLC], [2 x [3 x [4 x %struct.VLC]]], [2 x [2 x i32]], i32, i32 }
%struct.H264ChromaContext = type { [4 x ptr], [4 x ptr] }
%struct.HpelDSPContext = type { [4 x [4 x ptr]], [4 x [4 x ptr]], [4 x [4 x ptr]], [4 x ptr] }
%struct.VideoDSPContext = type { ptr, ptr }
%struct.VP3DSPContext = type { ptr, ptr, ptr, ptr, ptr, ptr, ptr, ptr }
%struct.VP56DSPContext = type { ptr, ptr, ptr }
%struct.VPXRangeCoder = type { i32, i32, ptr, ptr, i32, i32 }
%struct.VP56RefDc = type { i8, i32, i16 }
%struct.VP56mv = type { i16, i16 }
%struct.VP56Model = type { [64 x i8], [64 x i8], [64 x i8], [2 x i8], [2 x i8], [2 x [2 x i8]], [2 x [7 x i8]], [2 x [8 x i8]], [2 x [11 x i8]], [2 x [3 x [6 x [11 x i8]]]], [2 x [3 x [3 x [6 x [5 x i8]]]]], [2 x [36 x [5 x i8]]], [2 x [14 x i8]], [3 x [10 x [10 x i8]]], [3 x [10 x [2 x i8]]] }
%struct.GetBitContext = type { ptr, ptr, i32, i32, i32 }
%struct.VLC = type { i32, ptr, i32, i32 }

@vp6_coord_div = internal constant [6 x i8] c"\04\04\04\04\08\08", align 1

; Function Attrs: cold nounwind optsize uwtable
define internal i32 @vp6_decode_init_context(ptr noundef %0, ptr noundef %1, i32 noundef %2, i32 noundef %3) #0 {
  %5 = alloca i32, align 4
  %6 = alloca ptr, align 8
  %7 = alloca ptr, align 8
  %8 = alloca i32, align 4
  %9 = alloca i32, align 4
  %10 = alloca i32, align 4
  %11 = alloca i32, align 4
  store ptr %0, ptr %6, align 8, !tbaa !4
  store ptr %1, ptr %7, align 8, !tbaa !29
  store i32 %2, ptr %8, align 4, !tbaa !32
  store i32 %3, ptr %9, align 4, !tbaa !32
  call void @llvm.lifetime.start.p0(i64 4, ptr %10) #9
  %12 = load ptr, ptr %6, align 8, !tbaa !4
  %13 = load ptr, ptr %7, align 8, !tbaa !29
  %14 = load i32, ptr %8, align 4, !tbaa !32
  %15 = load i32, ptr %9, align 4, !tbaa !32
  %16 = call i32 @ff_vp56_init_context(ptr noundef %12, ptr noundef %13, i32 noundef %14, i32 noundef %15)
  store i32 %16, ptr %10, align 4, !tbaa !32
  %17 = load i32, ptr %10, align 4, !tbaa !32
  %18 = icmp slt i32 %17, 0
  br i1 %18, label %19, label %21

19:                                               ; preds = %4
  %20 = load i32, ptr %10, align 4, !tbaa !32
  store i32 %20, ptr %5, align 4
  store i32 1, ptr %11, align 4
  br label %40

21:                                               ; preds = %4
  %22 = load ptr, ptr %7, align 8, !tbaa !29
  %23 = getelementptr inbounds nuw %struct.vp56_context, ptr %22, i32 0, i32 5
  call void @ff_vp6dsp_init(ptr noundef %23)
  %24 = load ptr, ptr %7, align 8, !tbaa !29
  %25 = getelementptr inbounds nuw %struct.vp56_context, ptr %24, i32 0, i32 37
  store i32 0, ptr %25, align 8, !tbaa !50
  %26 = load ptr, ptr %7, align 8, !tbaa !29
  %27 = getelementptr inbounds nuw %struct.vp56_context, ptr %26, i32 0, i32 54
  store ptr @vp6_coord_div, ptr %27, align 16, !tbaa !51
  %28 = load ptr, ptr %7, align 8, !tbaa !29
  %29 = getelementptr inbounds nuw %struct.vp56_context, ptr %28, i32 0, i32 55
  store ptr @vp6_parse_vector_adjustment, ptr %29, align 8, !tbaa !52
  %30 = load ptr, ptr %7, align 8, !tbaa !29
  %31 = getelementptr inbounds nuw %struct.vp56_context, ptr %30, i32 0, i32 56
  store ptr @vp6_filter, ptr %31, align 16, !tbaa !53
  %32 = load ptr, ptr %7, align 8, !tbaa !29
  %33 = getelementptr inbounds nuw %struct.vp56_context, ptr %32, i32 0, i32 58
  store ptr @vp6_default_models_init, ptr %33, align 16, !tbaa !54
  %34 = load ptr, ptr %7, align 8, !tbaa !29
  %35 = getelementptr inbounds nuw %struct.vp56_context, ptr %34, i32 0, i32 59
  store ptr @vp6_parse_vector_models, ptr %35, align 8, !tbaa !55
  %36 = load ptr, ptr %7, align 8, !tbaa !29
  %37 = getelementptr inbounds nuw %struct.vp56_context, ptr %36, i32 0, i32 60
  store ptr @vp6_parse_coeff_models, ptr %37, align 16, !tbaa !56
  %38 = load ptr, ptr %7, align 8, !tbaa !29
  %39 = getelementptr inbounds nuw %struct.vp56_context, ptr %38, i32 0, i32 61
  store ptr @vp6_parse_header, ptr %39, align 8, !tbaa !57
  store i32 0, ptr %5, align 4
  store i32 1, ptr %11, align 4
  br label %40

40:                                               ; preds = %21, %19
  call void @llvm.lifetime.end.p0(i64 4, ptr %10) #9
  %41 = load i32, ptr %5, align 4
  ret i32 %41
}