; Function Attrs: cold nounwind optsize uwtable
define internal fastcc range(i32 -2147483648, 1) i32 @vp6_decode_init_context(ptr noundef %0, ptr noundef %1, i32 noundef range(i32 0, 2) %2, i32 noundef %3) unnamed_addr #0 {
  %5 = tail call i32 @ff_vp56_init_context(ptr noundef %0, ptr noundef %1, i32 noundef %2, i32 noundef %3) #11
  %6 = icmp slt i32 %5, 0
  br i1 %6, label %17, label %7

7:                                                ; preds = %4
  %8 = getelementptr inbounds nuw i8, ptr %1, i64 568
  tail call void @ff_vp6dsp_init(ptr noundef nonnull %8) #11
  %9 = getelementptr inbounds nuw i8, ptr %1, i64 1816
  store i32 0, ptr %9, align 8, !tbaa !47
  %10 = getelementptr inbounds nuw i8, ptr %1, i64 3184
  store ptr @vp6_coord_div, ptr %10, align 16, !tbaa !48
  %11 = getelementptr inbounds nuw i8, ptr %1, i64 3192
  store ptr @vp6_parse_vector_adjustment, ptr %11, align 8, !tbaa !49
  %12 = getelementptr inbounds nuw i8, ptr %1, i64 3200
  store ptr @vp6_filter, ptr %12, align 16, !tbaa !50
  %13 = getelementptr inbounds nuw i8, ptr %1, i64 3216
  store ptr @vp6_default_models_init, ptr %13, align 16, !tbaa !51
  %14 = getelementptr inbounds nuw i8, ptr %1, i64 3224
  store ptr @vp6_parse_vector_models, ptr %14, align 8, !tbaa !52
  %15 = getelementptr inbounds nuw i8, ptr %1, i64 3232
  store ptr @vp6_parse_coeff_models, ptr %15, align 16, !tbaa !53
  %16 = getelementptr inbounds nuw i8, ptr %1, i64 3240
  store ptr @vp6_parse_header, ptr %16, align 8, !tbaa !54
  br label %17

17:                                               ; preds = %4, %7
  %.0 = phi i32 [ 0, %7 ], [ %5, %4 ]
  ret i32 %.0
}